; Function Attrs: mustprogress uwtable
define hidden noundef nonnull align 8 dereferenceable(16) ptr @_ZN7aig_refaSERKS_(ptr noundef nonnull returned align 8 captures(ret: address, provenance) dereferenceable(16) %0, ptr noundef nonnull readonly align 8 captures(none) dereferenceable(16) %1) local_unnamed_addr #6 align 2 {
  %3 = getelementptr inbounds nuw i8, ptr %1, i64 8
  %4 = load ptr, ptr %3, align 8, !tbaa !12
  %.not = icmp eq ptr %4, null
  br i1 %.not, label %12, label %5

5:                                                ; preds = %2
  %6 = ptrtoint ptr %4 to i64
  %7 = and i64 %6, -2
  %8 = inttoptr i64 %7 to ptr
  %9 = getelementptr inbounds nuw i8, ptr %8, i64 4
  %10 = load i32, ptr %9, align 4, !tbaa !13
  %11 = add i32 %10, 1
  store i32 %11, ptr %9, align 4, !tbaa !13
  br label %12

12:                                               ; preds = %5, %2
  %13 = getelementptr inbounds nuw i8, ptr %0, i64 8
  %14 = load ptr, ptr %13, align 8, !tbaa !12
  %.not6 = icmp eq ptr %14, null
  br i1 %.not6, label %_ZN11aig_manager3imp7dec_refERK7aig_lit.exit, label %15

15:                                               ; preds = %12
  %16 = load ptr, ptr %0, align 8, !tbaa !3
  %17 = load ptr, ptr %16, align 8, !tbaa !16
  %18 = ptrtoint ptr %14 to i64
  %19 = and i64 %18, -2
  %20 = inttoptr i64 %19 to ptr
  %21 = getelementptr inbounds nuw i8, ptr %20, i64 4
  %22 = load i32, ptr %21, align 4, !tbaa !13
  %23 = add i32 %22, -1
  store i32 %23, ptr %21, align 4, !tbaa !13
  %24 = icmp eq i32 %23, 0
  %25 = getelementptr inbounds nuw i8, ptr %17, i64 640
  %26 = load ptr, ptr %25, align 8, !tbaa !19
  %27 = icmp eq ptr %26, null
  br i1 %24, label %28, label %_ZN11aig_manager3imp12dec_ref_coreEP3aig.exit.i.i

28:                                               ; preds = %15
  br i1 %27, label %35, label %29

29:                                               ; preds = %28
  %30 = getelementptr inbounds i8, ptr %26, i64 -4
  %31 = load i32, ptr %30, align 4, !tbaa !23
  %32 = getelementptr inbounds i8, ptr %26, i64 -8
  %33 = load i32, ptr %32, align 4, !tbaa !23
  %34 = icmp eq i32 %31, %33
  br i1 %34, label %35, label %_ZN11aig_manager3imp12dec_ref_coreEP3aig.exit.thread.i.i

35:                                               ; preds = %29, %28
  tail call void @_ZN6vectorIP3aigLb0EjE13expand_vectorEv(ptr noundef nonnull align 8 dereferenceable(8) %25)
  %.pre.i.i.i.i = load ptr, ptr %25, align 8, !tbaa !19
  %.phi.trans.insert.i.i.i.i = getelementptr inbounds i8, ptr %.pre.i.i.i.i, i64 -4
  %.pre2.i.i.i.i = load i32, ptr %.phi.trans.insert.i.i.i.i, align 4, !tbaa !23
  br label %_ZN11aig_manager3imp12dec_ref_coreEP3aig.exit.thread.i.i

_ZN11aig_manager3imp12dec_ref_coreEP3aig.exit.thread.i.i: ; preds = %35, %29
  %36 = phi i32 [ %.pre2.i.i.i.i, %35 ], [ %31, %29 ]
  %37 = phi ptr [ %.pre.i.i.i.i, %35 ], [ %26, %29 ]
  %38 = getelementptr inbounds i8, ptr %37, i64 -4
  %39 = zext i32 %36 to i64
  %40 = getelementptr inbounds nuw ptr, ptr %37, i64 %39
  store ptr %20, ptr %40, align 8, !tbaa !24
  %41 = add i32 %36, 1
  store i32 %41, ptr %38, align 4, !tbaa !23
  br label %_ZNK6vectorIP3aigLb0EjE5emptyEv.exit.i.i.i.preheader

_ZN11aig_manager3imp12dec_ref_coreEP3aig.exit.i.i: ; preds = %15
  br i1 %27, label %_ZN11aig_manager3imp7dec_refERK7aig_lit.exit, label %_ZNK6vectorIP3aigLb0EjE5emptyEv.exit.i.i.i.preheader

_ZNK6vectorIP3aigLb0EjE5emptyEv.exit.i.i.i.preheader: ; preds = %_ZN11aig_manager3imp12dec_ref_coreEP3aig.exit.i.i, %_ZN11aig_manager3imp12dec_ref_coreEP3aig.exit.thread.i.i
  %.ph = phi ptr [ %26, %_ZN11aig_manager3imp12dec_ref_coreEP3aig.exit.i.i ], [ %37, %_ZN11aig_manager3imp12dec_ref_coreEP3aig.exit.thread.i.i ]
  br label %_ZNK6vectorIP3aigLb0EjE5emptyEv.exit.i.i.i

_ZNK6vectorIP3aigLb0EjE5emptyEv.exit.i.i.i:       ; preds = %_ZNK6vectorIP3aigLb0EjE5emptyEv.exit.i.i.i.preheader, %_ZN6vectorIP3aigLb0EjE4backEv.exit.i.i.i
  %42 = phi ptr [ %50, %_ZN6vectorIP3aigLb0EjE4backEv.exit.i.i.i ], [ %.ph, %_ZNK6vectorIP3aigLb0EjE5emptyEv.exit.i.i.i.preheader ]
  %43 = getelementptr inbounds i8, ptr %42, i64 -4
  %44 = load i32, ptr %43, align 4, !tbaa !23
  %45 = icmp eq i32 %44, 0
  br i1 %45, label %_ZN11aig_manager3imp7dec_refERK7aig_lit.exit.loopexit, label %_ZN6vectorIP3aigLb0EjE4backEv.exit.i.i.i

_ZN6vectorIP3aigLb0EjE4backEv.exit.i.i.i:         ; preds = %_ZNK6vectorIP3aigLb0EjE5emptyEv.exit.i.i.i
  %46 = add i32 %44, -1
  %47 = zext i32 %46 to i64
  %48 = getelementptr inbounds nuw ptr, ptr %42, i64 %47
  %49 = load ptr, ptr %48, align 8, !tbaa !24
  store i32 %46, ptr %43, align 4, !tbaa !23
  tail call void @_ZN11aig_manager3imp11delete_nodeEP3aig(ptr noundef nonnull align 8 dereferenceable(680) %17, ptr noundef %49)
  %50 = load ptr, ptr %25, align 8, !tbaa !19
  %51 = icmp eq ptr %50, null
  br i1 %51, label %_ZN11aig_manager3imp7dec_refERK7aig_lit.exit.loopexit, label %_ZNK6vectorIP3aigLb0EjE5emptyEv.exit.i.i.i, !llvm.loop !25

_ZN11aig_manager3imp7dec_refERK7aig_lit.exit.loopexit: ; preds = %_ZNK6vectorIP3aigLb0EjE5emptyEv.exit.i.i.i, %_ZN6vectorIP3aigLb0EjE4backEv.exit.i.i.i
  %.pre = load ptr, ptr %3, align 8, !tbaa !12
  br label %_ZN11aig_manager3imp7dec_refERK7aig_lit.exit

_ZN11aig_manager3imp7dec_refERK7aig_lit.exit:     ; preds = %_ZN11aig_manager3imp7dec_refERK7aig_lit.exit.loopexit, %_ZN11aig_manager3imp12dec_ref_coreEP3aig.exit.i.i, %12
  %52 = phi ptr [ %.pre, %_ZN11aig_manager3imp7dec_refERK7aig_lit.exit.loopexit ], [ %4, %_ZN11aig_manager3imp12dec_ref_coreEP3aig.exit.i.i ], [ %4, %12 ]
  store ptr %52, ptr %13, align 8, !tbaa !12
  %53 = load ptr, ptr %1, align 8, !tbaa !3
  store ptr %53, ptr %0, align 8, !tbaa !3
  ret ptr %0
}